target datalayout = "e-m:e-p270:32:32-p271:32:32-p272:64:64-i64:64-i128:128-f80:128-n8:16:32:64-S128"
target triple = "x86_64-pc-linux-gnu"

%struct.mbedtls_mpi = type { ptr, i16, i16 }
%union.mbedtls_ssl_user_data_t = type { i64 }
%struct.mbedtls_ssl_context = type { ptr, i32, i32, i32, i32, i32, ptr, ptr, ptr, ptr, ptr, ptr, ptr, ptr, ptr, ptr, ptr, ptr, ptr, ptr, ptr, ptr, ptr, ptr, ptr, ptr, ptr, ptr, ptr, ptr, ptr, ptr, ptr, i32, i64, i64, i16, i64, i64, i64, i64, i32, i32, i8, i8, i32, i8, ptr, ptr, ptr, ptr, ptr, ptr, ptr, i32, i64, i64, [8 x i8], i16, ptr, ptr, ptr, i64, i32, i64, [12 x i8], [12 x i8], [32 x i8], i8, i8, ptr, ptr, %union.mbedtls_ssl_user_data_t }
%struct.mbedtls_md_context_t = type { ptr, ptr, ptr }
%struct.mbedtls_ssl_handshake_params = type { i8, i8, i8, i8, i8, i32, i8, i8, i8, i8, ptr, ptr, ptr, ptr, ptr, i8, i8, i8, i8, i16, i16, [20 x i16], ptr, ptr, %struct.mbedtls_dhm_context, %struct.mbedtls_ecdh_context, i16, i64, i32, i8, [1024 x i8], i64, ptr, ptr, i64, i16, ptr, ptr, ptr, ptr, %struct.anon, ptr, i16, i8, i32, i32, i32, ptr, ptr, ptr, i32, ptr, [8 x i8], i8, [32 x i8], i8, i16, %struct.mbedtls_md_context_t, %struct.mbedtls_md_context_t, i16, i8, %union.anon.1, [64 x i8], [1076 x i8], i64, i32, i32, i8, ptr, ptr, %union.anon.4, %struct.mbedtls_ssl_tls13_handshake_secrets, ptr, i64, ptr }
%struct.mbedtls_dhm_context = type { %struct.mbedtls_mpi, %struct.mbedtls_mpi, %struct.mbedtls_mpi, %struct.mbedtls_mpi, %struct.mbedtls_mpi, %struct.mbedtls_mpi, %struct.mbedtls_mpi, %struct.mbedtls_mpi, %struct.mbedtls_mpi, %struct.mbedtls_mpi }
%struct.mbedtls_ecdh_context = type { i8, i32, i32, %union.anon }
%union.anon = type { %struct.mbedtls_ecdh_context_mbed }
%struct.mbedtls_ecdh_context_mbed = type { %struct.mbedtls_ecp_group, %struct.mbedtls_mpi, %struct.mbedtls_ecp_point, %struct.mbedtls_ecp_point, %struct.mbedtls_mpi }
%struct.mbedtls_ecp_group = type { i32, %struct.mbedtls_mpi, %struct.mbedtls_mpi, %struct.mbedtls_mpi, %struct.mbedtls_ecp_point, %struct.mbedtls_mpi, i64, i64, i32, ptr, ptr, ptr, ptr, ptr, i64 }
%struct.mbedtls_ecp_point = type { %struct.mbedtls_mpi, %struct.mbedtls_mpi, %struct.mbedtls_mpi }
%struct.anon = type { i64, i8, [4 x %struct.mbedtls_ssl_hs_buffer], %struct.anon.0 }
%struct.mbedtls_ssl_hs_buffer = type { i8, ptr, i64 }
%struct.anon.0 = type { ptr, i64, i32 }
%union.anon.1 = type { %struct.anon.2 }
%struct.anon.2 = type { i8, [64 x i8], i64 }
%union.anon.4 = type { [64 x i8] }
%struct.mbedtls_ssl_tls13_handshake_secrets = type { [64 x i8], [64 x i8] }

@.str = private unnamed_addr constant [121 x i8] c"generated/home/dtcxzyw/WorkSpace/Projects/compilers/llvm-opt-benchmark/bench/lief/bench_build/mbed_src/library/ssl_tls.c\00", align 1
@.str.84 = private unnamed_addr constant [65 x i8] c"Perform mbedtls-based computation of digest of ServerKeyExchange\00", align 1
@.str.85 = private unnamed_addr constant [17 x i8] c"mbedtls_md_setup\00", align 1
@.str.86 = private unnamed_addr constant [18 x i8] c"mbedtls_md_starts\00", align 1
@.str.87 = private unnamed_addr constant [18 x i8] c"mbedtls_md_update\00", align 1
@.str.88 = private unnamed_addr constant [18 x i8] c"mbedtls_md_finish\00", align 1

; Function Attrs: nounwind uwtable
define hidden i32 @mbedtls_ssl_get_key_exchange_md_tls1_2(ptr noundef %0, ptr noundef %1, ptr noundef %2, ptr noundef %3, i64 noundef %4, i32 noundef %5) #0 {
  %7 = alloca ptr, align 8
  %8 = alloca ptr, align 8
  %9 = alloca ptr, align 8
  %10 = alloca ptr, align 8
  %11 = alloca i64, align 8
  %12 = alloca i32, align 4
  %13 = alloca i32, align 4
  %14 = alloca %struct.mbedtls_md_context_t, align 8
  %15 = alloca ptr, align 8
  store ptr %0, ptr %7, align 8, !tbaa !27
  store ptr %1, ptr %8, align 8, !tbaa !29
  store ptr %2, ptr %9, align 8, !tbaa !39
  store ptr %3, ptr %10, align 8, !tbaa !29
  store i64 %4, ptr %11, align 8, !tbaa !8
  store i32 %5, ptr %12, align 4, !tbaa !10
  call void @llvm.lifetime.start.p0(i64 4, ptr %13) #11
  store i32 0, ptr %13, align 4, !tbaa !10
  call void @llvm.lifetime.start.p0(i64 24, ptr %14) #11
  call void @llvm.lifetime.start.p0(i64 8, ptr %15) #11
  %16 = load i32, ptr %12, align 4, !tbaa !10
  %17 = call ptr @mbedtls_md_info_from_type(i32 noundef %16)
  store ptr %17, ptr %15, align 8, !tbaa !295
  %18 = load ptr, ptr %15, align 8, !tbaa !295
  %19 = call zeroext i8 @mbedtls_md_get_size(ptr noundef %18)
  %20 = zext i8 %19 to i64
  %21 = load ptr, ptr %9, align 8, !tbaa !39
  store i64 %20, ptr %21, align 8, !tbaa !8
  %22 = load ptr, ptr %7, align 8, !tbaa !27
  call void (ptr, i32, ptr, i32, ptr, ...) @mbedtls_debug_print_msg(ptr noundef %22, i32 noundef 3, ptr noundef @.str, i32 noundef 9170, ptr noundef @.str.84)
  call void @mbedtls_md_init(ptr noundef %14)
  %23 = load ptr, ptr %15, align 8, !tbaa !295
  %24 = call i32 @mbedtls_md_setup(ptr noundef %14, ptr noundef %23, i32 noundef 0)
  store i32 %24, ptr %13, align 4, !tbaa !10
  %25 = icmp ne i32 %24, 0
  br i1 %25, label %26, label %29

26:                                               ; preds = %6
  %27 = load ptr, ptr %7, align 8, !tbaa !27
  %28 = load i32, ptr %13, align 4, !tbaa !10
  call void @mbedtls_debug_print_ret(ptr noundef %27, i32 noundef 1, ptr noundef @.str, i32 noundef 9182, ptr noundef @.str.85, i32 noundef %28)
  br label %62

29:                                               ; preds = %6
  %30 = call i32 @mbedtls_md_starts(ptr noundef %14)
  store i32 %30, ptr %13, align 4, !tbaa !10
  %31 = icmp ne i32 %30, 0
  br i1 %31, label %32, label %35

32:                                               ; preds = %29
  %33 = load ptr, ptr %7, align 8, !tbaa !27
  %34 = load i32, ptr %13, align 4, !tbaa !10
  call void @mbedtls_debug_print_ret(ptr noundef %33, i32 noundef 1, ptr noundef @.str, i32 noundef 9186, ptr noundef @.str.86, i32 noundef %34)
  br label %62

35:                                               ; preds = %29
  %36 = load ptr, ptr %7, align 8, !tbaa !27
  %37 = getelementptr inbounds nuw %struct.mbedtls_ssl_context, ptr %36, i32 0, i32 16
  %38 = load ptr, ptr %37, align 8, !tbaa !78
  %39 = getelementptr inbounds nuw %struct.mbedtls_ssl_handshake_params, ptr %38, i32 0, i32 62
  %40 = getelementptr inbounds [64 x i8], ptr %39, i64 0, i64 0
  %41 = call i32 @mbedtls_md_update(ptr noundef %14, ptr noundef %40, i64 noundef 64)
  store i32 %41, ptr %13, align 4, !tbaa !10
  %42 = icmp ne i32 %41, 0
  br i1 %42, label %43, label %46

43:                                               ; preds = %35
  %44 = load ptr, ptr %7, align 8, !tbaa !27
  %45 = load i32, ptr %13, align 4, !tbaa !10
  call void @mbedtls_debug_print_ret(ptr noundef %44, i32 noundef 1, ptr noundef @.str, i32 noundef 9190, ptr noundef @.str.87, i32 noundef %45)
  br label %62

46:                                               ; preds = %35
  %47 = load ptr, ptr %10, align 8, !tbaa !29
  %48 = load i64, ptr %11, align 8, !tbaa !8
  %49 = call i32 @mbedtls_md_update(ptr noundef %14, ptr noundef %47, i64 noundef %48)
  store i32 %49, ptr %13, align 4, !tbaa !10
  %50 = icmp ne i32 %49, 0
  br i1 %50, label %51, label %54

51:                                               ; preds = %46
  %52 = load ptr, ptr %7, align 8, !tbaa !27
  %53 = load i32, ptr %13, align 4, !tbaa !10
  call void @mbedtls_debug_print_ret(ptr noundef %52, i32 noundef 1, ptr noundef @.str, i32 noundef 9194, ptr noundef @.str.87, i32 noundef %53)
  br label %62

54:                                               ; preds = %46
  %55 = load ptr, ptr %8, align 8, !tbaa !29
  %56 = call i32 @mbedtls_md_finish(ptr noundef %14, ptr noundef %55)
  store i32 %56, ptr %13, align 4, !tbaa !10
  %57 = icmp ne i32 %56, 0
  br i1 %57, label %58, label %61

58:                                               ; preds = %54
  %59 = load ptr, ptr %7, align 8, !tbaa !27
  %60 = load i32, ptr %13, align 4, !tbaa !10
  call void @mbedtls_debug_print_ret(ptr noundef %59, i32 noundef 1, ptr noundef @.str, i32 noundef 9198, ptr noundef @.str.88, i32 noundef %60)
  br label %62

61:                                               ; preds = %54
  br label %62

62:                                               ; preds = %61, %58, %51, %43, %32, %26
  call void @mbedtls_md_free(ptr noundef %14)
  %63 = load i32, ptr %13, align 4, !tbaa !10
  %64 = icmp ne i32 %63, 0
  br i1 %64, label %65, label %68

65:                                               ; preds = %62
  %66 = load ptr, ptr %7, align 8, !tbaa !27
  %67 = call i32 @mbedtls_ssl_send_alert_message(ptr noundef %66, i8 noundef zeroext 2, i8 noundef zeroext 80)
  br label %68

68:                                               ; preds = %65, %62
  %69 = load i32, ptr %13, align 4, !tbaa !10
  call void @llvm.lifetime.end.p0(i64 8, ptr %15) #11
  call void @llvm.lifetime.end.p0(i64 24, ptr %14) #11
  call void @llvm.lifetime.end.p0(i64 4, ptr %13) #11
  ret i32 %69
}