; Function Attrs: nounwind uwtable
define hidden i32 @mbedtls_ssl_get_key_exchange_md_tls1_2(ptr noundef %0, ptr noundef %1, ptr noundef writeonly captures(none) initializes((0, 8)) %2, ptr noundef %3, i64 noundef %4, i32 noundef %5) local_unnamed_addr #1 {
  %7 = alloca %struct.mbedtls_md_context_t, align 8
  call void @llvm.lifetime.start.p0(i64 24, ptr nonnull %7) #26
  %8 = tail call ptr @mbedtls_md_info_from_type(i32 noundef %5) #26
  %9 = tail call zeroext i8 @mbedtls_md_get_size(ptr noundef %8) #26
  %10 = zext i8 %9 to i64
  store i64 %10, ptr %2, align 8, !tbaa !33
  tail call void (ptr, i32, ptr, i32, ptr, ...) @mbedtls_debug_print_msg(ptr noundef %0, i32 noundef 3, ptr noundef nonnull @.str, i32 noundef 9170, ptr noundef nonnull @.str.84) #26
  call void @mbedtls_md_init(ptr noundef nonnull %7) #26
  %11 = call i32 @mbedtls_md_setup(ptr noundef nonnull %7, ptr noundef %8, i32 noundef 0) #26
  %.not = icmp eq i32 %11, 0
  br i1 %.not, label %13, label %12

12:                                               ; preds = %6
  call void @mbedtls_debug_print_ret(ptr noundef %0, i32 noundef 1, ptr noundef nonnull @.str, i32 noundef 9182, ptr noundef nonnull @.str.85, i32 noundef %11) #26
  br label %29

13:                                               ; preds = %6
  %14 = call i32 @mbedtls_md_starts(ptr noundef nonnull %7) #26
  %.not26 = icmp eq i32 %14, 0
  br i1 %.not26, label %16, label %15

15:                                               ; preds = %13
  call void @mbedtls_debug_print_ret(ptr noundef %0, i32 noundef 1, ptr noundef nonnull @.str, i32 noundef 9186, ptr noundef nonnull @.str.86, i32 noundef %14) #26
  br label %29

16:                                               ; preds = %13
  %17 = getelementptr inbounds nuw i8, ptr %0, i64 112
  %18 = load ptr, ptr %17, align 8, !tbaa !70
  %19 = getelementptr inbounds nuw i8, ptr %18, i64 2120
  %20 = call i32 @mbedtls_md_update(ptr noundef nonnull %7, ptr noundef nonnull %19, i64 noundef 64) #26
  %.not27 = icmp eq i32 %20, 0
  br i1 %.not27, label %22, label %21

21:                                               ; preds = %16
  call void @mbedtls_debug_print_ret(ptr noundef nonnull %0, i32 noundef 1, ptr noundef nonnull @.str, i32 noundef 9190, ptr noundef nonnull @.str.87, i32 noundef %20) #26
  br label %29

22:                                               ; preds = %16
  %23 = call i32 @mbedtls_md_update(ptr noundef nonnull %7, ptr noundef %3, i64 noundef %4) #26
  %.not28 = icmp eq i32 %23, 0
  br i1 %.not28, label %25, label %24

24:                                               ; preds = %22
  call void @mbedtls_debug_print_ret(ptr noundef nonnull %0, i32 noundef 1, ptr noundef nonnull @.str, i32 noundef 9194, ptr noundef nonnull @.str.87, i32 noundef %23) #26
  br label %29

25:                                               ; preds = %22
  %26 = call i32 @mbedtls_md_finish(ptr noundef nonnull %7, ptr noundef %1) #26
  %.not29 = icmp eq i32 %26, 0
  br i1 %.not29, label %28, label %27

27:                                               ; preds = %25
  call void @mbedtls_debug_print_ret(ptr noundef nonnull %0, i32 noundef 1, ptr noundef nonnull @.str, i32 noundef 9198, ptr noundef nonnull @.str.88, i32 noundef %26) #26
  br label %29

28:                                               ; preds = %25
  call void @mbedtls_md_free(ptr noundef nonnull %7) #26
  br label %31

29:                                               ; preds = %12, %15, %21, %24, %27
  %.0.ph = phi i32 [ %26, %27 ], [ %23, %24 ], [ %20, %21 ], [ %14, %15 ], [ %11, %12 ]
  call void @mbedtls_md_free(ptr noundef nonnull %7) #26
  %30 = call i32 @mbedtls_ssl_send_alert_message(ptr noundef %0, i8 noundef zeroext 2, i8 noundef zeroext 80) #26
  br label %31

31:                                               ; preds = %28, %29
  %.034 = phi i32 [ %.0.ph, %29 ], [ 0, %28 ]
  call void @llvm.lifetime.end.p0(i64 24, ptr nonnull %7) #26
  ret i32 %.034
}